target datalayout = "e-m:e-p270:32:32-p271:32:32-p272:64:64-i64:64-i128:128-f80:128-n8:16:32:64-S128"
target triple = "x86_64-unknown-linux-gnu"

%"class.sat::literal" = type { i32 }
%"class.sat::extension" = type { ptr, i8, i32, %class.symbol, ptr }
%class.symbol = type { ptr }
%"struct.pb::solver::ba_sort" = type { ptr, %"class.sat::literal", %class.svector.11 }
%class.svector.11 = type { %class.vector.12 }
%class.vector.12 = type { ptr }

; Function Attrs: mustprogress nounwind uwtable
define linkonce_odr hidden void @_ZN3sat7literalC2Ejb(ptr noundef nonnull align 4 dereferenceable(4) %this, i32 noundef %v, i1 noundef zeroext %_sign) unnamed_addr #4 comdat align 2 {
entry:
  %this.addr = alloca ptr, align 8
  %v.addr = alloca i32, align 4
  %_sign.addr = alloca i8, align 1
  store ptr %this, ptr %this.addr, align 8
  store i32 %v, ptr %v.addr, align 4
  %frombool = zext i1 %_sign to i8
  store i8 %frombool, ptr %_sign.addr, align 1
  %this1 = load ptr, ptr %this.addr, align 8
  %m_val = getelementptr inbounds %"class.sat::literal", ptr %this1, i32 0, i32 0
  %0 = load i32, ptr %v.addr, align 4
  %shl = shl i32 %0, 1
  %1 = load i8, ptr %_sign.addr, align 1
  %tobool = trunc i8 %1 to i1
  %conv = zext i1 %tobool to i32
  %add = add i32 %shl, %conv
  store i32 %add, ptr %m_val, align 4
  ret void
}

; Function Attrs: mustprogress nounwind uwtable
define linkonce_odr hidden noundef nonnull align 8 dereferenceable(4408) ptr @_ZN3sat9extension1sEv(ptr noundef nonnull align 8 dereferenceable(32) %this) #4 comdat align 2 {
entry:
  %this.addr = alloca ptr, align 8
  store ptr %this, ptr %this.addr, align 8
  %this1 = load ptr, ptr %this.addr, align 8
  %m_solver = getelementptr inbounds %"class.sat::extension", ptr %this1, i32 0, i32 4
  %0 = load ptr, ptr %m_solver, align 8
  ret ptr %0
}

; Function Attrs: mustprogress uwtable
define hidden i32 @_ZN2pb6solver7ba_sort5freshEPKc(ptr noundef nonnull align 8 dereferenceable(24) %this, ptr noundef %0) #5 align 2 {
entry:
  %retval = alloca %"class.sat::literal", align 4
  %this.addr = alloca ptr, align 8
  %.addr = alloca ptr, align 8
  %v = alloca i32, align 4
  store ptr %this, ptr %this.addr, align 8
  store ptr %0, ptr %.addr, align 8
  %this1 = load ptr, ptr %this.addr, align 8
  %s = getelementptr inbounds %"struct.pb::solver::ba_sort", ptr %this1, i32 0, i32 0
  %1 = load ptr, ptr %s, align 8
  %call = call noundef nonnull align 8 dereferenceable(4408) ptr @_ZN3sat9extension1sEv(ptr noundef nonnull align 8 dereferenceable(32) %1)
  %call2 = call noundef i32 @_ZN3sat6solver6mk_varEbb(ptr noundef nonnull align 8 dereferenceable(4408) %call, i1 noundef zeroext false, i1 noundef zeroext true)
  store i32 %call2, ptr %v, align 4
  %2 = load i32, ptr %v, align 4
  call void @_ZN3sat7literalC2Ejb(ptr noundef nonnull align 4 dereferenceable(4) %retval, i32 noundef %2, i1 noundef zeroext false)
  %coerce.dive = getelementptr inbounds %"class.sat::literal", ptr %retval, i32 0, i32 0
  %3 = load i32, ptr %coerce.dive, align 4
  ret i32 %3
}