; Function Attrs: mustprogress uwtable
define hidden noundef i32 @_ZN2pb6solver7ba_sort5freshEPKc(ptr nocapture noundef nonnull readonly align 8 dereferenceable(24) %this, ptr nocapture noundef readnone %0) local_unnamed_addr #3 align 2 {
entry:
  %1 = load ptr, ptr %this, align 8
  %m_solver.i = getelementptr inbounds i8, ptr %1, i64 24
  %2 = load ptr, ptr %m_solver.i, align 8
  %call2 = tail call noundef i32 @_ZN3sat6solver6mk_varEbb(ptr noundef nonnull align 8 dereferenceable(4408) %2, i1 noundef zeroext false, i1 noundef zeroext true)
  %shl.i = shl i32 %call2, 1
  ret i32 %shl.i
}